target datalayout = "e-m:e-p270:32:32-p271:32:32-p272:64:64-i64:64-i128:128-f80:128-n8:16:32:64-S128"
target triple = "x86_64-pc-linux-gnu"

%struct.PLpgSQL_execstate = type { ptr, ptr, ptr, i64, i8, i32, i32, i8, i8, i8, i8, ptr, ptr, ptr, ptr, ptr, ptr, ptr, i32, i32, ptr, ptr, ptr, ptr, ptr, ptr, ptr, ptr, ptr, ptr, i64, ptr, ptr, ptr, ptr, ptr }
%struct.SimpleEcontextStackEntry = type { ptr, i32, ptr }

@simple_econtext_stack = internal global ptr null, align 8
@shared_simple_eval_estate = internal global ptr null, align 8
@shared_simple_eval_resowner = internal global ptr null, align 8
@CurrentMemoryContext = external global ptr, align 8
@TopTransactionContext = external global ptr, align 8
@TopTransactionResourceOwner = external global ptr, align 8
@.str.42 = private unnamed_addr constant [28 x i8] c"PL/pgSQL simple expressions\00", align 1

; Function Attrs: inlinehint nounwind uwtable
define internal ptr @MemoryContextSwitchTo(ptr noundef %0) #2 {
  %2 = alloca ptr, align 8
  %3 = alloca ptr, align 8
  store ptr %0, ptr %2, align 8
  call void @llvm.lifetime.start.p0(i64 8, ptr %3) #12
  %4 = load ptr, ptr @CurrentMemoryContext, align 8
  store ptr %4, ptr %3, align 8
  %5 = load ptr, ptr %2, align 8
  store ptr %5, ptr @CurrentMemoryContext, align 8
  %6 = load ptr, ptr %3, align 8
  call void @llvm.lifetime.end.p0(i64 8, ptr %3) #12
  ret ptr %6
}

; Function Attrs: nounwind uwtable
define internal void @plpgsql_create_econtext(ptr noundef %0) #0 {
  %2 = alloca ptr, align 8
  %3 = alloca ptr, align 8
  %4 = alloca ptr, align 8
  store ptr %0, ptr %2, align 8
  call void @llvm.lifetime.start.p0(i64 8, ptr %3) #12
  %5 = load ptr, ptr %2, align 8
  %6 = getelementptr inbounds nuw %struct.PLpgSQL_execstate, ptr %5, i32 0, i32 23
  %7 = load ptr, ptr %6, align 8
  %8 = icmp eq ptr %7, null
  br i1 %8, label %9, label %22

9:                                                ; preds = %1
  call void @llvm.lifetime.start.p0(i64 8, ptr %4) #12
  %10 = load ptr, ptr @shared_simple_eval_estate, align 8
  %11 = icmp eq ptr %10, null
  br i1 %11, label %12, label %18

12:                                               ; preds = %9
  %13 = load ptr, ptr @TopTransactionContext, align 8
  %14 = call ptr @MemoryContextSwitchTo(ptr noundef %13)
  store ptr %14, ptr %4, align 8
  %15 = call ptr @CreateExecutorState()
  store ptr %15, ptr @shared_simple_eval_estate, align 8
  %16 = load ptr, ptr %4, align 8
  %17 = call ptr @MemoryContextSwitchTo(ptr noundef %16)
  br label %18

18:                                               ; preds = %12, %9
  %19 = load ptr, ptr @shared_simple_eval_estate, align 8
  %20 = load ptr, ptr %2, align 8
  %21 = getelementptr inbounds nuw %struct.PLpgSQL_execstate, ptr %20, i32 0, i32 23
  store ptr %19, ptr %21, align 8
  call void @llvm.lifetime.end.p0(i64 8, ptr %4) #12
  br label %22

22:                                               ; preds = %18, %1
  %23 = load ptr, ptr %2, align 8
  %24 = getelementptr inbounds nuw %struct.PLpgSQL_execstate, ptr %23, i32 0, i32 24
  %25 = load ptr, ptr %24, align 8
  %26 = icmp eq ptr %25, null
  br i1 %26, label %27, label %37

27:                                               ; preds = %22
  %28 = load ptr, ptr @shared_simple_eval_resowner, align 8
  %29 = icmp eq ptr %28, null
  br i1 %29, label %30, label %33

30:                                               ; preds = %27
  %31 = load ptr, ptr @TopTransactionResourceOwner, align 8
  %32 = call ptr @ResourceOwnerCreate(ptr noundef %31, ptr noundef @.str.42)
  store ptr %32, ptr @shared_simple_eval_resowner, align 8
  br label %33

33:                                               ; preds = %30, %27
  %34 = load ptr, ptr @shared_simple_eval_resowner, align 8
  %35 = load ptr, ptr %2, align 8
  %36 = getelementptr inbounds nuw %struct.PLpgSQL_execstate, ptr %35, i32 0, i32 24
  store ptr %34, ptr %36, align 8
  br label %37

37:                                               ; preds = %33, %22
  %38 = load ptr, ptr %2, align 8
  %39 = getelementptr inbounds nuw %struct.PLpgSQL_execstate, ptr %38, i32 0, i32 23
  %40 = load ptr, ptr %39, align 8
  %41 = call ptr @CreateExprContext(ptr noundef %40)
  %42 = load ptr, ptr %2, align 8
  %43 = getelementptr inbounds nuw %struct.PLpgSQL_execstate, ptr %42, i32 0, i32 31
  store ptr %41, ptr %43, align 8
  %44 = load ptr, ptr @TopTransactionContext, align 8
  %45 = call ptr @MemoryContextAlloc(ptr noundef %44, i64 noundef 24)
  store ptr %45, ptr %3, align 8
  %46 = load ptr, ptr %2, align 8
  %47 = getelementptr inbounds nuw %struct.PLpgSQL_execstate, ptr %46, i32 0, i32 31
  %48 = load ptr, ptr %47, align 8
  %49 = load ptr, ptr %3, align 8
  %50 = getelementptr inbounds nuw %struct.SimpleEcontextStackEntry, ptr %49, i32 0, i32 0
  store ptr %48, ptr %50, align 8
  %51 = call i32 @GetCurrentSubTransactionId()
  %52 = load ptr, ptr %3, align 8
  %53 = getelementptr inbounds nuw %struct.SimpleEcontextStackEntry, ptr %52, i32 0, i32 1
  store i32 %51, ptr %53, align 8
  %54 = load ptr, ptr @simple_econtext_stack, align 8
  %55 = load ptr, ptr %3, align 8
  %56 = getelementptr inbounds nuw %struct.SimpleEcontextStackEntry, ptr %55, i32 0, i32 2
  store ptr %54, ptr %56, align 8
  %57 = load ptr, ptr %3, align 8
  store ptr %57, ptr @simple_econtext_stack, align 8
  call void @llvm.lifetime.end.p0(i64 8, ptr %3) #12
  ret void
}