; Function Attrs: nounwind uwtable
define internal fastcc void @plpgsql_create_econtext(ptr noundef nonnull captures(none) initializes((200, 208)) %0) unnamed_addr #0 {
  %2 = getelementptr inbounds nuw i8, ptr %0, i64 136
  %3 = load ptr, ptr %2, align 8
  %4 = icmp eq ptr %3, null
  br i1 %4, label %5, label %14

5:                                                ; preds = %1
  %6 = load ptr, ptr @shared_simple_eval_estate, align 8
  %7 = icmp eq ptr %6, null
  br i1 %7, label %8, label %12

8:                                                ; preds = %5
  %9 = load ptr, ptr @TopTransactionContext, align 8
  %10 = load ptr, ptr @CurrentMemoryContext, align 8
  store ptr %9, ptr @CurrentMemoryContext, align 8
  %11 = tail call ptr @CreateExecutorState() #12
  store ptr %11, ptr @shared_simple_eval_estate, align 8
  store ptr %10, ptr @CurrentMemoryContext, align 8
  br label %12

12:                                               ; preds = %8, %5
  %13 = phi ptr [ %11, %8 ], [ %6, %5 ]
  store ptr %13, ptr %2, align 8
  br label %14

14:                                               ; preds = %12, %1
  %15 = phi ptr [ %13, %12 ], [ %3, %1 ]
  %16 = getelementptr inbounds nuw i8, ptr %0, i64 144
  %17 = load ptr, ptr %16, align 8
  %18 = icmp eq ptr %17, null
  br i1 %18, label %19, label %27

19:                                               ; preds = %14
  %20 = load ptr, ptr @shared_simple_eval_resowner, align 8
  %21 = icmp eq ptr %20, null
  br i1 %21, label %22, label %25

22:                                               ; preds = %19
  %23 = load ptr, ptr @TopTransactionResourceOwner, align 8
  %24 = tail call ptr @ResourceOwnerCreate(ptr noundef %23, ptr noundef nonnull @.str.42) #12
  store ptr %24, ptr @shared_simple_eval_resowner, align 8
  %.pre.pre = load ptr, ptr %2, align 8
  br label %25

25:                                               ; preds = %22, %19
  %.pre = phi ptr [ %.pre.pre, %22 ], [ %15, %19 ]
  %26 = phi ptr [ %24, %22 ], [ %20, %19 ]
  store ptr %26, ptr %16, align 8
  br label %27

27:                                               ; preds = %25, %14
  %28 = phi ptr [ %.pre, %25 ], [ %15, %14 ]
  %29 = tail call ptr @CreateExprContext(ptr noundef %28) #12
  %30 = getelementptr inbounds nuw i8, ptr %0, i64 200
  store ptr %29, ptr %30, align 8
  %31 = load ptr, ptr @TopTransactionContext, align 8
  %32 = tail call ptr @MemoryContextAlloc(ptr noundef %31, i64 noundef 24) #12
  %33 = load ptr, ptr %30, align 8
  store ptr %33, ptr %32, align 8
  %34 = tail call i32 @GetCurrentSubTransactionId() #12
  %35 = getelementptr inbounds nuw i8, ptr %32, i64 8
  store i32 %34, ptr %35, align 8
  %36 = load ptr, ptr @simple_econtext_stack, align 8
  %37 = getelementptr inbounds nuw i8, ptr %32, i64 16
  store ptr %36, ptr %37, align 8
  store ptr %32, ptr @simple_econtext_stack, align 8
  ret void
}